target datalayout = "e-m:e-p270:32:32-p271:32:32-p272:64:64-i64:64-i128:128-f80:128-n8:16:32:64-S128"
target triple = "x86_64-pc-linux-gnu"

%class.DumpTimeClassInfo = type { i8, i8, i8, ptr, ptr, i8, i8, i32, i32, i32, ptr, ptr, ptr, ptr }

@_ZN22SystemDictionaryShared15_dumptime_tableE = hidden global ptr null, align 8

; Function Attrs: mustprogress nounwind uwtable
define linkonce_odr hidden noundef zeroext i1 @_ZN17DumpTimeClassInfo11is_excludedEv(ptr noundef nonnull align 8 dereferenceable(72) %0) #1 comdat align 2 {
  %2 = alloca ptr, align 8
  store ptr %0, ptr %2, align 8
  %3 = load ptr, ptr %2, align 8
  %4 = getelementptr inbounds %class.DumpTimeClassInfo, ptr %3, i32 0, i32 0
  %5 = load i8, ptr %4, align 8
  %6 = trunc i8 %5 to i1
  br i1 %6, label %11, label %7

7:                                                ; preds = %1
  %8 = getelementptr inbounds %class.DumpTimeClassInfo, ptr %3, i32 0, i32 5
  %9 = load i8, ptr %8, align 8
  %10 = trunc i8 %9 to i1
  br label %11

11:                                               ; preds = %7, %1
  %12 = phi i1 [ true, %1 ], [ %10, %7 ]
  ret i1 %12
}

; Function Attrs: mustprogress nounwind uwtable
define hidden noundef ptr @_ZN22SystemDictionaryShared15get_info_lockedEP13InstanceKlass(ptr noundef %0) #1 align 2 {
  %2 = alloca ptr, align 8
  %3 = alloca ptr, align 8
  store ptr %0, ptr %2, align 8
  %4 = load ptr, ptr @_ZN22SystemDictionaryShared15_dumptime_tableE, align 8
  %5 = load ptr, ptr %2, align 8
  %6 = call noundef ptr @_ZN24DumpTimeSharedClassTable8get_infoEP13InstanceKlass(ptr noundef nonnull align 8 dereferenceable(127124) %4, ptr noundef %5)
  store ptr %6, ptr %3, align 8
  %7 = load ptr, ptr %3, align 8
  ret ptr %7
}

; Function Attrs: mustprogress nounwind uwtable
define hidden noundef zeroext i1 @_ZN22SystemDictionaryShared17is_excluded_classEP13InstanceKlass(ptr noundef %0) #1 align 2 {
  %2 = alloca ptr, align 8
  %3 = alloca ptr, align 8
  store ptr %0, ptr %2, align 8
  %4 = load ptr, ptr %2, align 8
  %5 = call noundef ptr @_ZN22SystemDictionaryShared15get_info_lockedEP13InstanceKlass(ptr noundef %4)
  store ptr %5, ptr %3, align 8
  %6 = load ptr, ptr %3, align 8
  %7 = call noundef zeroext i1 @_ZN17DumpTimeClassInfo11is_excludedEv(ptr noundef nonnull align 8 dereferenceable(72) %6)
  ret i1 %7
}