; Function Attrs: mustprogress nounwind uwtable
define hidden noundef zeroext i1 @_ZN22SystemDictionaryShared17is_excluded_classEP13InstanceKlass(ptr noundef %0) local_unnamed_addr #0 align 2 {
  %2 = load ptr, ptr @_ZN22SystemDictionaryShared15_dumptime_tableE, align 8
  %3 = tail call noundef ptr @_ZN24DumpTimeSharedClassTable8get_infoEP13InstanceKlass(ptr noundef nonnull align 8 dereferenceable(127124) %2, ptr noundef %0) #18
  %4 = load i8, ptr %3, align 8
  %5 = trunc i8 %4 to i1
  %6 = getelementptr inbounds i8, ptr %3, i64 24
  %7 = load i8, ptr %6, align 8
  %8 = trunc i8 %7 to i1
  %9 = select i1 %5, i1 true, i1 %8
  ret i1 %9
}